target datalayout = "e-m:e-p270:32:32-p271:32:32-p272:64:64-i64:64-i128:128-f80:128-n8:16:32:64-S128"
target triple = "x86_64-pc-linux-gnu"

%struct.ec_method_st = type { ptr, ptr, ptr, ptr, ptr, ptr, ptr, ptr, ptr, ptr, ptr }
%struct.ec_group_st = type { ptr, ptr, %struct.bignum_st, %struct.bignum_st, i32, ptr, %struct.bignum_st, %struct.bignum_st, %struct.bignum_st, i32, ptr, %struct.bignum_st }
%struct.bignum_st = type { ptr, i32, i32, i32, i32 }
%struct.ec_point_st = type { ptr, %struct.bignum_st, %struct.bignum_st, %struct.bignum_st }

@.str = private unnamed_addr constant [118 x i8] c"generated/home/dtcxzyw/WorkSpace/Projects/compilers/llvm-opt-benchmark/bench/libquic/libquic/boringssl/crypto/ec/ec.c\00", align 1

; Function Attrs: nounwind uwtable
define hidden i32 @EC_POINT_mul(ptr noundef %0, ptr noundef %1, ptr noundef %2, ptr noundef %3, ptr noundef %4, ptr noundef %5) #1 {
  %7 = alloca i32, align 4
  %8 = alloca ptr, align 8
  %9 = alloca ptr, align 8
  %10 = alloca ptr, align 8
  %11 = alloca ptr, align 8
  %12 = alloca ptr, align 8
  %13 = alloca ptr, align 8
  store ptr %0, ptr %8, align 8, !tbaa !13
  store ptr %1, ptr %9, align 8, !tbaa !29
  store ptr %2, ptr %10, align 8, !tbaa !22
  store ptr %3, ptr %11, align 8, !tbaa !29
  store ptr %4, ptr %12, align 8, !tbaa !22
  store ptr %5, ptr %13, align 8, !tbaa !24
  %14 = load ptr, ptr %10, align 8, !tbaa !22
  %15 = icmp eq ptr %14, null
  br i1 %15, label %16, label %19

16:                                               ; preds = %6
  %17 = load ptr, ptr %12, align 8, !tbaa !22
  %18 = icmp eq ptr %17, null
  br i1 %18, label %27, label %19

19:                                               ; preds = %16, %6
  %20 = load ptr, ptr %11, align 8, !tbaa !29
  %21 = icmp eq ptr %20, null
  %22 = zext i1 %21 to i32
  %23 = load ptr, ptr %12, align 8, !tbaa !22
  %24 = icmp eq ptr %23, null
  %25 = zext i1 %24 to i32
  %26 = icmp ne i32 %22, %25
  br i1 %26, label %27, label %28

27:                                               ; preds = %19, %16
  call void @ERR_put_error(i32 noundef 15, i32 noundef 0, i32 noundef 67, ptr noundef @.str, i32 noundef 878)
  store i32 0, ptr %7, align 4
  br label %61

28:                                               ; preds = %19
  %29 = load ptr, ptr %8, align 8, !tbaa !13
  %30 = getelementptr inbounds nuw %struct.ec_group_st, ptr %29, i32 0, i32 0
  %31 = load ptr, ptr %30, align 8, !tbaa !15
  %32 = load ptr, ptr %9, align 8, !tbaa !29
  %33 = getelementptr inbounds nuw %struct.ec_point_st, ptr %32, i32 0, i32 0
  %34 = load ptr, ptr %33, align 8, !tbaa !31
  %35 = icmp ne ptr %31, %34
  br i1 %35, label %47, label %36

36:                                               ; preds = %28
  %37 = load ptr, ptr %11, align 8, !tbaa !29
  %38 = icmp ne ptr %37, null
  br i1 %38, label %39, label %48

39:                                               ; preds = %36
  %40 = load ptr, ptr %8, align 8, !tbaa !13
  %41 = getelementptr inbounds nuw %struct.ec_group_st, ptr %40, i32 0, i32 0
  %42 = load ptr, ptr %41, align 8, !tbaa !15
  %43 = load ptr, ptr %11, align 8, !tbaa !29
  %44 = getelementptr inbounds nuw %struct.ec_point_st, ptr %43, i32 0, i32 0
  %45 = load ptr, ptr %44, align 8, !tbaa !31
  %46 = icmp ne ptr %42, %45
  br i1 %46, label %47, label %48

47:                                               ; preds = %39, %28
  call void @ERR_put_error(i32 noundef 15, i32 noundef 0, i32 noundef 106, ptr noundef @.str, i32 noundef 884)
  store i32 0, ptr %7, align 4
  br label %61

48:                                               ; preds = %39, %36
  %49 = load ptr, ptr %8, align 8, !tbaa !13
  %50 = getelementptr inbounds nuw %struct.ec_group_st, ptr %49, i32 0, i32 0
  %51 = load ptr, ptr %50, align 8, !tbaa !15
  %52 = getelementptr inbounds nuw %struct.ec_method_st, ptr %51, i32 0, i32 5
  %53 = load ptr, ptr %52, align 8, !tbaa !58
  %54 = load ptr, ptr %8, align 8, !tbaa !13
  %55 = load ptr, ptr %9, align 8, !tbaa !29
  %56 = load ptr, ptr %10, align 8, !tbaa !22
  %57 = load ptr, ptr %11, align 8, !tbaa !29
  %58 = load ptr, ptr %12, align 8, !tbaa !22
  %59 = load ptr, ptr %13, align 8, !tbaa !24
  %60 = call i32 %53(ptr noundef %54, ptr noundef %55, ptr noundef %56, ptr noundef %57, ptr noundef %58, ptr noundef %59)
  store i32 %60, ptr %7, align 4
  br label %61

61:                                               ; preds = %48, %47, %27
  %62 = load i32, ptr %7, align 4
  ret i32 %62
}