; Function Attrs: nounwind uwtable
define hidden i32 @EC_POINT_mul(ptr noundef %0, ptr noundef %1, ptr noundef %2, ptr noundef %3, ptr noundef %4, ptr noundef %5) local_unnamed_addr #1 {
  %7 = icmp eq ptr %2, null
  %8 = icmp eq ptr %4, null
  %or.cond = and i1 %7, %8
  %9 = icmp eq ptr %3, null
  %.not.not = xor i1 %9, %8
  %or.cond22.not = or i1 %.not.not, %or.cond
  br i1 %or.cond22.not, label %10, label %11

10:                                               ; preds = %6
  tail call void @ERR_put_error(i32 noundef 15, i32 noundef 0, i32 noundef 67, ptr noundef nonnull @.str, i32 noundef 878) #11
  br label %22

11:                                               ; preds = %6
  %12 = load ptr, ptr %0, align 8, !tbaa !11
  %13 = load ptr, ptr %1, align 8, !tbaa !23
  %.not19 = icmp eq ptr %12, %13
  br i1 %.not19, label %14, label %17

14:                                               ; preds = %11
  br i1 %9, label %18, label %15

15:                                               ; preds = %14
  %16 = load ptr, ptr %3, align 8, !tbaa !23
  %.not21 = icmp eq ptr %12, %16
  br i1 %.not21, label %18, label %17

17:                                               ; preds = %15, %11
  tail call void @ERR_put_error(i32 noundef 15, i32 noundef 0, i32 noundef 106, ptr noundef nonnull @.str, i32 noundef 884) #11
  br label %22

18:                                               ; preds = %15, %14
  %19 = getelementptr inbounds nuw i8, ptr %12, i64 40
  %20 = load ptr, ptr %19, align 8, !tbaa !41
  %21 = tail call i32 %20(ptr noundef nonnull %0, ptr noundef nonnull %1, ptr noundef %2, ptr noundef %3, ptr noundef %4, ptr noundef %5) #11
  br label %22

22:                                               ; preds = %18, %17, %10
  %.0 = phi i32 [ 0, %10 ], [ 0, %17 ], [ %21, %18 ]
  ret i32 %.0
}